(dp0
S'KOKC'
p1
(F35.3931007385254
F-97.600700378418
tp2
sS'KLGA'
p3
(F40.77719879
F-73.87259674
tp4
sS'KLGB'
p5
(F33.81769943
F-118.1520004
tp6
sS'KORD'
p7
(F41.97859955
F-87.90480042
tp8
sS'KIND'
p9
(F39.7173004150391
F-86.2944030761719
tp10
sS'KHOU'
p11
(F29.64539909
F-95.27890015
tp12
sS'KPHX'
p13
(F33.4342994689941
F-112.012001037598
tp14
sS'KLAX'
p15
(F33.94250107
F-118.4079971
tp16
sS'KCVG'
p17
(F39.0488014221
F-84.6678009033
tp18
sS'KATL'
p19
(F33.6366996765137
F-84.4281005859375
tp20
sS'KTUL'
p21
(F36.1983985900879
F-95.8880996704102
tp22
sS'KPHL'
p23
(F39.871898651123
F-75.241096496582
tp24
sS'KMCI'
p25
(F39.2975997924805
F-94.7138977050781
tp26
sS'KPDX'
p27
(F45.58869934
F-122.5979996
tp28
sS'KMCO'
p29
(F28.4293994903564
F-81.3089981079102
tp30
sS'KDTW'
p31
(F42.2123985290527
F-83.353401184082
tp32
sS'KFLL'
p33
(F26.0725994110107
F-80.152702331543
tp34
sS'KBOS'
p35
(F42.36429977
F-71.00520325
tp36
sS'KXNA'
p37
(F36.2818984985352
F-94.3068008422852
tp38
sS'KCOS'
p39
(F38.8058013916016
F-104.700996398926
tp40
sS'KRDU'
p41
(F35.8776016235352
F-78.7874984741211
tp42
sS'KOAK'
p43
(F37.7212982177734
F-122.221000671387
tp44
sS'KTUS'
p45
(F32.1161003112793
F-110.94100189209
tp46
sS'KMKE'
p47
(F42.9472007751465
F-87.896598815918
tp48
sS'KDEN'
p49
(F39.8616981506348
F-104.672996520996
tp50
sS'KSLC'
p51
(F40.7883987426758
F-111.977996826172
tp52
sS'KSDF'
p53
(F38.1744003295898
F-85.7360000610352
tp54
sS'KLIT'
p55
(F34.7294006347656
F-92.2242965698242
tp56
sS'KRSW'
p57
(F26.5361995697021
F-81.7552032470703
tp58
sS'KMEM'
p59
(F35.0424003601074
F-89.9766998291016
tp60
sS'KDCA'
p61
(F38.8521003723145
F-77.0376968383789
tp62
sS'KDAL'
p63
(F32.8470993041992
F-96.8517990112305
tp64
sS'KSJC'
p65
(F37.3625984191895
F-121.929000854492
tp66
sS'KIAH'
p67
(F29.9843997955322
F-95.3414001464844
tp68
sS'KFAT'
p69
(F36.7761993408203
F-119.718002319336
tp70
sS'KCID'
p71
(F41.8847007751465
F-91.7108001708984
tp72
sS'KSTL'
p73
(F38.7486991882324
F-90.370002746582
tp74
sS'KCMH'
p75
(F39.9980010986328
F-82.8918991088867
tp76
sS'KMSP'
p77
(F44.8819999695
F-93.2218017578
tp78
sS'KMDW'
p79
(F41.7859992980957
F-87.7524032592773
tp80
sS'KMSY'
p81
(F29.9934005737305
F-90.2580032348633
tp82
sS'KJFK'
p83
(F40.63980103
F-73.77890015
tp84
sS'KSAN'
p85
(F32.7336006164551
F-117.190002441406
tp86
sS'KONT'
p87
(F34.0559997558594
F-117.600997924805
tp88
sS'KBUR'
p89
(F34.2006988525391
F-118.359001159668
tp90
sS'KMIA'
p91
(F25.7931995391846
F-80.2906036376953
tp92
sS'KSMF'
p93
(F38.6954002380371
F-121.591003417969
tp94
sS'KEWR'
p95
(F40.6925010681152
F-74.168701171875
tp96
sS'KDFW'
p97
(F32.896800994873
F-97.0380020141602
tp98
sS'KSEA'
p99
(F47.4490013122559
F-122.30899810791
tp100
sS'KIAD'
p101
(F38.94449997
F-77.45580292
tp102
sS'KCLT'
p103
(F35.2140007019043
F-80.9430999755859
tp104
sS'KBNA'
p105
(F36.1245002746582
F-86.6781997680664
tp106
sS'KTPA'
p107
(F27.9755001068115
F-82.533203125
tp108
sS'KABQ'
p109
(F35.0401992797852
F-106.609001159668
tp110
sS'KELP'
p111
(F31.80719948
F-106.3779984
tp112
sS'KBWI'
p113
(F39.17539978
F-76.66829681
tp114
sS'KSNA'
p115
(F33.67570114
F-117.8679962
tp116
sS'KPSP'
p117
(F33.8297004699707
F-116.50700378418
tp118
sS'KSFO'
p119
(F37.6189994812012
F-122.375
tp120
sS'KDSM'
p121
(F41.5340003967285
F-93.6631011962891
tp122
sS'KPBI'
p123
(F26.6832008361816
F-80.0955963134766
tp124
sS'KCLE'
p125
(F41.4117012024
F-81.8498001099
tp126
s.